target datalayout = "e-m:e-p270:32:32-p271:32:32-p272:64:64-i64:64-i128:128-f80:128-n8:16:32:64-S128"
target triple = "x86_64-pc-linux-gnu"

%struct.timespec = type { i64, i64 }

@.str = private unnamed_addr constant [3 x i8] c"rb\00", align 1
@.str.1 = private unnamed_addr constant [24 x i8] c"Cannot read file \22%s\22.\0A\00", align 1
@.str.2 = private unnamed_addr constant [8 x i8] c"%s=%d  \00", align 1
@s_Strs = internal global [11 x ptr] [ptr @.str.6, ptr @.str.7, ptr @.str.8, ptr @.str.9, ptr @.str.10, ptr @.str.11, ptr @.str.12, ptr @.str.13, ptr @.str.14, ptr @.str.15, ptr @.str.16], align 16
@.str.3 = private unnamed_addr constant [5 x i8] c"Time\00", align 1
@.str.17 = private unnamed_addr constant [5 x i8] c"%s =\00", align 1
@.str.18 = private unnamed_addr constant [11 x i8] c"%9.2f sec\0A\00", align 1

; Function Attrs: nounwind uwtable
define internal void @Abc_PrintTime(i32 noundef %0, ptr noundef %1, i64 noundef %2) #0 {
  %4 = alloca i32, align 4
  %5 = alloca ptr, align 8
  %6 = alloca i64, align 8
  store i32 %0, ptr %4, align 4
  store ptr %1, ptr %5, align 8
  store i64 %2, ptr %6, align 8
  %7 = load ptr, ptr %5, align 8
  call void (i32, ptr, ...) @Abc_Print(i32 noundef 1, ptr noundef @.str.17, ptr noundef %7)
  %8 = load i64, ptr %6, align 8
  %9 = sitofp i64 %8 to double
  %10 = fmul double 1.000000e+00, %9
  %11 = fdiv double %10, 1.000000e+06
  call void (i32, ptr, ...) @Abc_Print(i32 noundef 1, ptr noundef @.str.18, double noundef %11)
  ret void
}

; Function Attrs: nounwind uwtable
define internal i64 @Abc_Clock() #0 {
  %1 = alloca i64, align 8
  %2 = alloca %struct.timespec, align 8
  %3 = alloca i64, align 8
  %4 = call i32 @clock_gettime(i32 noundef 1, ptr noundef %2) #12
  %5 = icmp slt i32 %4, 0
  br i1 %5, label %6, label %7

6:                                                ; preds = %0
  store i64 -1, ptr %1, align 8
  br label %18

7:                                                ; preds = %0
  %8 = getelementptr inbounds %struct.timespec, ptr %2, i32 0, i32 0
  %9 = load i64, ptr %8, align 8
  %10 = mul nsw i64 %9, 1000000
  store i64 %10, ptr %3, align 8
  %11 = getelementptr inbounds %struct.timespec, ptr %2, i32 0, i32 1
  %12 = load i64, ptr %11, align 8
  %13 = mul nsw i64 %12, 1000000
  %14 = sdiv i64 %13, 1000000000
  %15 = load i64, ptr %3, align 8
  %16 = add nsw i64 %15, %14
  store i64 %16, ptr %3, align 8
  %17 = load i64, ptr %3, align 8
  store i64 %17, ptr %1, align 8
  br label %18

18:                                               ; preds = %7, %6
  %19 = load i64, ptr %1, align 8
  ret i64 %19
}

; Function Attrs: nounwind uwtable
define ptr @Gia_ManReadGig(ptr noundef %0) #0 {
  %2 = alloca ptr, align 8
  %3 = alloca ptr, align 8
  %4 = alloca i64, align 8
  %5 = alloca ptr, align 8
  %6 = alloca ptr, align 8
  %7 = alloca ptr, align 8
  %8 = alloca i32, align 4
  %9 = alloca [11 x i32], align 16
  %10 = alloca ptr, align 8
  store ptr %0, ptr %3, align 8
  %11 = call i64 @Abc_Clock()
  store i64 %11, ptr %4, align 8
  store ptr null, ptr %5, align 8
  store ptr null, ptr %6, align 8
  %12 = load ptr, ptr %3, align 8
  %13 = call noalias ptr @fopen(ptr noundef %12, ptr noundef @.str)
  store ptr %13, ptr %10, align 8
  %14 = load ptr, ptr %10, align 8
  %15 = icmp eq ptr %14, null
  br i1 %15, label %16, label %19

16:                                               ; preds = %1
  %17 = load ptr, ptr %3, align 8
  %18 = call i32 (ptr, ...) @printf(ptr noundef @.str.1, ptr noundef %17)
  store ptr null, ptr %2, align 8
  br label %67

19:                                               ; preds = %1
  %20 = load ptr, ptr %10, align 8
  %21 = getelementptr inbounds [11 x i32], ptr %9, i64 0, i64 0
  %22 = call ptr @Gls_ManCount(ptr noundef %20, ptr noundef %21)
  store ptr %22, ptr %7, align 8
  %23 = load ptr, ptr %10, align 8
  call void @rewind(ptr noundef %23)
  store i32 0, ptr %8, align 4
  br label %24

24:                                               ; preds = %44, %19
  %25 = load i32, ptr %8, align 4
  %26 = icmp slt i32 %25, 11
  br i1 %26, label %27, label %47

27:                                               ; preds = %24
  %28 = load i32, ptr %8, align 4
  %29 = sext i32 %28 to i64
  %30 = getelementptr inbounds [11 x i32], ptr %9, i64 0, i64 %29
  %31 = load i32, ptr %30, align 4
  %32 = icmp ne i32 %31, 0
  br i1 %32, label %33, label %43

33:                                               ; preds = %27
  %34 = load i32, ptr %8, align 4
  %35 = sext i32 %34 to i64
  %36 = getelementptr inbounds [11 x ptr], ptr @s_Strs, i64 0, i64 %35
  %37 = load ptr, ptr %36, align 8
  %38 = load i32, ptr %8, align 4
  %39 = sext i32 %38 to i64
  %40 = getelementptr inbounds [11 x i32], ptr %9, i64 0, i64 %39
  %41 = load i32, ptr %40, align 4
  %42 = call i32 (ptr, ...) @printf(ptr noundef @.str.2, ptr noundef %37, i32 noundef %41)
  br label %43

43:                                               ; preds = %33, %27
  br label %44

44:                                               ; preds = %43
  %45 = load i32, ptr %8, align 4
  %46 = add nsw i32 %45, 1
  store i32 %46, ptr %8, align 4
  br label %24, !llvm.loop !29

47:                                               ; preds = %24
  %48 = call i64 @Abc_Clock()
  %49 = load i64, ptr %4, align 8
  %50 = sub nsw i64 %48, %49
  call void @Abc_PrintTime(i32 noundef 1, ptr noundef @.str.3, i64 noundef %50)
  %51 = load ptr, ptr %7, align 8
  %52 = getelementptr inbounds [11 x i32], ptr %9, i64 0, i64 0
  %53 = call ptr @Gls_ManAlloc(ptr noundef %51, ptr noundef %52)
  store ptr %53, ptr %5, align 8
  %54 = load ptr, ptr %10, align 8
  %55 = load ptr, ptr %5, align 8
  %56 = call i32 @Gls_ManParse(ptr noundef %54, ptr noundef %55)
  %57 = icmp ne i32 %56, 0
  br i1 %57, label %58, label %62

58:                                               ; preds = %47
  %59 = load ptr, ptr %5, align 8
  %60 = load ptr, ptr %3, align 8
  %61 = call ptr @Gls_ManConstruct(ptr noundef %59, ptr noundef %60)
  store ptr %61, ptr %6, align 8
  br label %62

62:                                               ; preds = %58, %47
  %63 = load ptr, ptr %5, align 8
  call void @Gls_ManStop(ptr noundef %63)
  %64 = load ptr, ptr %10, align 8
  %65 = call i32 @fclose(ptr noundef %64)
  %66 = load ptr, ptr %6, align 8
  store ptr %66, ptr %2, align 8
  br label %67

67:                                               ; preds = %62, %16
  %68 = load ptr, ptr %2, align 8
  ret ptr %68
}