; Function Attrs: nounwind uwtable
define ptr @Gia_ManReadGig(ptr noundef %0) local_unnamed_addr #2 {
  %2 = alloca %struct.timespec, align 8
  %3 = alloca %struct.timespec, align 8
  %4 = alloca [11 x i32], align 16
  call void @llvm.lifetime.start.p0(i64 16, ptr nonnull %3)
  %5 = call i32 @clock_gettime(i32 noundef 1, ptr noundef nonnull %3) #24
  %6 = icmp slt i32 %5, 0
  br i1 %6, label %Abc_Clock.exit, label %7

7:                                                ; preds = %1
  %8 = load i64, ptr %3, align 8
  %.neg25 = mul i64 %8, -1000000
  %9 = getelementptr inbounds nuw i8, ptr %3, i64 8
  %10 = load i64, ptr %9, align 8
  %.neg = sdiv i64 %10, -1000
  %.neg26 = add i64 %.neg, %.neg25
  br label %Abc_Clock.exit

Abc_Clock.exit:                                   ; preds = %1, %7
  %.0.i.neg = phi i64 [ %.neg26, %7 ], [ 1, %1 ]
  call void @llvm.lifetime.end.p0(i64 16, ptr nonnull %3)
  %11 = call noalias ptr @fopen(ptr noundef %0, ptr noundef nonnull @.str)
  %12 = icmp eq ptr %11, null
  br i1 %12, label %13, label %15

13:                                               ; preds = %Abc_Clock.exit
  %14 = call i32 (ptr, ...) @printf(ptr noundef nonnull dereferenceable(1) @.str.1, ptr noundef %0)
  br label %42

15:                                               ; preds = %Abc_Clock.exit
  %16 = call ptr @Gls_ManCount(ptr noundef nonnull %11, ptr noundef nonnull %4)
  call void @rewind(ptr noundef nonnull %11)
  br label %17

17:                                               ; preds = %15, %24
  %indvars.iv = phi i64 [ 0, %15 ], [ %indvars.iv.next, %24 ]
  %18 = getelementptr inbounds nuw [11 x i32], ptr %4, i64 0, i64 %indvars.iv
  %19 = load i32, ptr %18, align 4
  %.not = icmp eq i32 %19, 0
  br i1 %.not, label %24, label %20

20:                                               ; preds = %17
  %21 = getelementptr inbounds nuw [11 x ptr], ptr @s_Strs, i64 0, i64 %indvars.iv
  %22 = load ptr, ptr %21, align 8
  %23 = call i32 (ptr, ...) @printf(ptr noundef nonnull dereferenceable(1) @.str.2, ptr noundef %22, i32 noundef %19)
  br label %24

24:                                               ; preds = %17, %20
  %indvars.iv.next = add nuw nsw i64 %indvars.iv, 1
  %exitcond.not = icmp eq i64 %indvars.iv.next, 11
  br i1 %exitcond.not, label %25, label %17, !llvm.loop !29

25:                                               ; preds = %24
  call void @llvm.lifetime.start.p0(i64 16, ptr nonnull %2)
  %26 = call i32 @clock_gettime(i32 noundef 1, ptr noundef nonnull %2) #24
  %27 = icmp slt i32 %26, 0
  br i1 %27, label %Abc_Clock.exit24, label %28

28:                                               ; preds = %25
  %29 = load i64, ptr %2, align 8
  %30 = mul nsw i64 %29, 1000000
  %31 = getelementptr inbounds nuw i8, ptr %2, i64 8
  %32 = load i64, ptr %31, align 8
  %33 = sdiv i64 %32, 1000
  %34 = add nsw i64 %33, %30
  br label %Abc_Clock.exit24

Abc_Clock.exit24:                                 ; preds = %25, %28
  %.0.i23 = phi i64 [ %34, %28 ], [ -1, %25 ]
  call void @llvm.lifetime.end.p0(i64 16, ptr nonnull %2)
  %35 = add i64 %.0.i23, %.0.i.neg
  call void (i32, ptr, ...) @Abc_Print(i32 poison, ptr noundef nonnull @.str.17, ptr noundef nonnull @.str.3)
  %36 = sitofp i64 %35 to double
  %37 = fdiv double %36, 1.000000e+06
  call void (i32, ptr, ...) @Abc_Print(i32 poison, ptr noundef nonnull @.str.18, double noundef %37)
  %38 = call ptr @Gls_ManAlloc(ptr noundef %16, ptr noundef nonnull %4)
  %39 = call i32 @Gls_ManParse(ptr noundef nonnull %11, ptr noundef %38)
  %40 = call ptr @Gls_ManConstruct(ptr noundef %38, ptr noundef %0)
  call void @Gls_ManStop(ptr noundef %38)
  %41 = call i32 @fclose(ptr noundef nonnull %11)
  br label %42

42:                                               ; preds = %Abc_Clock.exit24, %13
  %.0 = phi ptr [ null, %13 ], [ %40, %Abc_Clock.exit24 ]
  ret ptr %.0
}